target datalayout = "e-m:e-p270:32:32-p271:32:32-p272:64:64-i64:64-i128:128-f80:128-n8:16:32:64-S128"
target triple = "x86_64-pc-linux-gnu"

%struct.SDL_HIDAPI_Device = type { ptr, ptr, ptr, ptr, i16, i16, i16, ptr, %struct.SDL_GUID, i32, i32, i32, i32, i16, i16, i8, i32, i32, i32, ptr, ptr, ptr, ptr, %struct.SDL_AtomicInt, i32, ptr, i8, i8, i8, ptr, i32, ptr, ptr }
%struct.SDL_GUID = type { [16 x i8] }
%struct.SDL_AtomicInt = type { i32 }
%struct.SDL_DriverPS4_Context = type { ptr, ptr, i8, i8, i8, i8, i8, i8, i8, i8, i32, i8, i8, i8, i8, i8, i8, i8, i8, [6 x %struct.IMUCalibrationData], i64, i32, i8, i8, i8, i8, i8, i8, i16, i16, i16, i16, i64, i16, i16, %struct.PS4StatePacket_t }
%struct.IMUCalibrationData = type { i16, float }
%struct.PS4StatePacket_t = type { i8, i8, i8, i8, [3 x i8], i8, i8, [2 x i8], [1 x i8], [2 x i8], [2 x i8], [2 x i8], [2 x i8], [2 x i8], [2 x i8], [5 x i8], i8, [4 x i8], i8, [3 x i8], i8, [3 x i8] }
%struct.DS4EffectsState_t = type { i8, i8, i8, i8, i8, i8, i8, [8 x i8], i8, i8, i8, i8 }

@SetLedsForPlayerIndex.colors = internal constant [7 x [3 x i8]] [[3 x i8] c"\00\00@", [3 x i8] c"@\00\00", [3 x i8] c"\00@\00", [3 x i8] c" \00 ", [3 x i8] c"\02\01\00", [3 x i8] c"\00\01\01", [3 x i8] c"\01\01\01"], align 16
@.str.4 = private unnamed_addr constant [32 x i8] c"That operation is not supported\00", align 1

; Function Attrs: nounwind uwtable
define internal void @SetLedsForPlayerIndex(ptr noundef %0, i32 noundef %1) #0 {
  %3 = alloca ptr, align 8
  %4 = alloca i32, align 4
  store ptr %0, ptr %3, align 8
  store i32 %1, ptr %4, align 4
  %5 = load i32, ptr %4, align 4
  %6 = icmp sge i32 %5, 0
  br i1 %6, label %7, label %12

7:                                                ; preds = %2
  %8 = load i32, ptr %4, align 4
  %9 = sext i32 %8 to i64
  %10 = urem i64 %9, 7
  %11 = trunc i64 %10 to i32
  store i32 %11, ptr %4, align 4
  br label %13

12:                                               ; preds = %2
  store i32 0, ptr %4, align 4
  br label %13

13:                                               ; preds = %12, %7
  %14 = load i32, ptr %4, align 4
  %15 = sext i32 %14 to i64
  %16 = getelementptr inbounds [7 x [3 x i8]], ptr @SetLedsForPlayerIndex.colors, i64 0, i64 %15
  %17 = getelementptr inbounds [3 x i8], ptr %16, i64 0, i64 0
  %18 = load i8, ptr %17, align 1
  %19 = load ptr, ptr %3, align 8
  %20 = getelementptr inbounds nuw %struct.DS4EffectsState_t, ptr %19, i32 0, i32 2
  store i8 %18, ptr %20, align 1
  %21 = load i32, ptr %4, align 4
  %22 = sext i32 %21 to i64
  %23 = getelementptr inbounds [7 x [3 x i8]], ptr @SetLedsForPlayerIndex.colors, i64 0, i64 %22
  %24 = getelementptr inbounds [3 x i8], ptr %23, i64 0, i64 1
  %25 = load i8, ptr %24, align 1
  %26 = load ptr, ptr %3, align 8
  %27 = getelementptr inbounds nuw %struct.DS4EffectsState_t, ptr %26, i32 0, i32 3
  store i8 %25, ptr %27, align 1
  %28 = load i32, ptr %4, align 4
  %29 = sext i32 %28 to i64
  %30 = getelementptr inbounds [7 x [3 x i8]], ptr @SetLedsForPlayerIndex.colors, i64 0, i64 %29
  %31 = getelementptr inbounds [3 x i8], ptr %30, i64 0, i64 2
  %32 = load i8, ptr %31, align 1
  %33 = load ptr, ptr %3, align 8
  %34 = getelementptr inbounds nuw %struct.DS4EffectsState_t, ptr %33, i32 0, i32 4
  store i8 %32, ptr %34, align 1
  ret void
}

; Function Attrs: nounwind uwtable
define internal zeroext i1 @HIDAPI_DriverPS4_UpdateEffects(ptr noundef %0, i1 noundef zeroext %1) #0 {
  %3 = alloca ptr, align 8
  %4 = alloca i8, align 1
  %5 = alloca %struct.DS4EffectsState_t, align 1
  store ptr %0, ptr %3, align 8
  %6 = zext i1 %1 to i8
  store i8 %6, ptr %4, align 1
  call void @llvm.lifetime.start.p0(i64 19, ptr %5) #6
  call void @llvm.memset.p0.i64(ptr align 1 %5, i8 0, i64 19, i1 false)
  %7 = load ptr, ptr %3, align 8
  %8 = getelementptr inbounds nuw %struct.SDL_DriverPS4_Context, ptr %7, i32 0, i32 7
  %9 = load i8, ptr %8, align 1, !range !5, !noundef !6
  %10 = trunc i8 %9 to i1
  br i1 %10, label %11, label %20

11:                                               ; preds = %2
  %12 = load ptr, ptr %3, align 8
  %13 = getelementptr inbounds nuw %struct.SDL_DriverPS4_Context, ptr %12, i32 0, i32 22
  %14 = load i8, ptr %13, align 4
  %15 = getelementptr inbounds nuw %struct.DS4EffectsState_t, ptr %5, i32 0, i32 1
  store i8 %14, ptr %15, align 1
  %16 = load ptr, ptr %3, align 8
  %17 = getelementptr inbounds nuw %struct.SDL_DriverPS4_Context, ptr %16, i32 0, i32 23
  %18 = load i8, ptr %17, align 1
  %19 = getelementptr inbounds nuw %struct.DS4EffectsState_t, ptr %5, i32 0, i32 0
  store i8 %18, ptr %19, align 1
  br label %20

20:                                               ; preds = %11, %2
  %21 = load ptr, ptr %3, align 8
  %22 = getelementptr inbounds nuw %struct.SDL_DriverPS4_Context, ptr %21, i32 0, i32 6
  %23 = load i8, ptr %22, align 4, !range !5, !noundef !6
  %24 = trunc i8 %23 to i1
  br i1 %24, label %25, label %48

25:                                               ; preds = %20
  %26 = load ptr, ptr %3, align 8
  %27 = getelementptr inbounds nuw %struct.SDL_DriverPS4_Context, ptr %26, i32 0, i32 24
  %28 = load i8, ptr %27, align 2, !range !5, !noundef !6
  %29 = trunc i8 %28 to i1
  br i1 %29, label %30, label %43

30:                                               ; preds = %25
  %31 = load ptr, ptr %3, align 8
  %32 = getelementptr inbounds nuw %struct.SDL_DriverPS4_Context, ptr %31, i32 0, i32 25
  %33 = load i8, ptr %32, align 1
  %34 = getelementptr inbounds nuw %struct.DS4EffectsState_t, ptr %5, i32 0, i32 2
  store i8 %33, ptr %34, align 1
  %35 = load ptr, ptr %3, align 8
  %36 = getelementptr inbounds nuw %struct.SDL_DriverPS4_Context, ptr %35, i32 0, i32 26
  %37 = load i8, ptr %36, align 8
  %38 = getelementptr inbounds nuw %struct.DS4EffectsState_t, ptr %5, i32 0, i32 3
  store i8 %37, ptr %38, align 1
  %39 = load ptr, ptr %3, align 8
  %40 = getelementptr inbounds nuw %struct.SDL_DriverPS4_Context, ptr %39, i32 0, i32 27
  %41 = load i8, ptr %40, align 1
  %42 = getelementptr inbounds nuw %struct.DS4EffectsState_t, ptr %5, i32 0, i32 4
  store i8 %41, ptr %42, align 1
  br label %47

43:                                               ; preds = %25
  %44 = load ptr, ptr %3, align 8
  %45 = getelementptr inbounds nuw %struct.SDL_DriverPS4_Context, ptr %44, i32 0, i32 21
  %46 = load i32, ptr %45, align 8
  call void @SetLedsForPlayerIndex(ptr noundef %5, i32 noundef %46)
  br label %47

47:                                               ; preds = %43, %30
  br label %48

48:                                               ; preds = %47, %20
  %49 = load ptr, ptr %3, align 8
  %50 = load i8, ptr %4, align 1, !range !5, !noundef !6
  %51 = trunc i8 %50 to i1
  %52 = call zeroext i1 @HIDAPI_DriverPS4_InternalSendJoystickEffect(ptr noundef %49, ptr noundef %5, i32 noundef 19, i1 noundef zeroext %51)
  call void @llvm.lifetime.end.p0(i64 19, ptr %5) #6
  ret i1 %52
}

; Function Attrs: nounwind uwtable
define internal zeroext i1 @HIDAPI_DriverPS4_SetJoystickLED(ptr noundef %0, ptr noundef %1, i8 noundef zeroext %2, i8 noundef zeroext %3, i8 noundef zeroext %4) #0 {
  %6 = alloca i1, align 1
  %7 = alloca ptr, align 8
  %8 = alloca ptr, align 8
  %9 = alloca i8, align 1
  %10 = alloca i8, align 1
  %11 = alloca i8, align 1
  %12 = alloca ptr, align 8
  %13 = alloca i32, align 4
  store ptr %0, ptr %7, align 8
  store ptr %1, ptr %8, align 8
  store i8 %2, ptr %9, align 1
  store i8 %3, ptr %10, align 1
  store i8 %4, ptr %11, align 1
  call void @llvm.lifetime.start.p0(i64 8, ptr %12) #6
  %14 = load ptr, ptr %7, align 8
  %15 = getelementptr inbounds nuw %struct.SDL_HIDAPI_Device, ptr %14, i32 0, i32 20
  %16 = load ptr, ptr %15, align 8
  store ptr %16, ptr %12, align 8
  %17 = load ptr, ptr %12, align 8
  %18 = getelementptr inbounds nuw %struct.SDL_DriverPS4_Context, ptr %17, i32 0, i32 6
  %19 = load i8, ptr %18, align 4, !range !5, !noundef !6
  %20 = trunc i8 %19 to i1
  br i1 %20, label %23, label %21

21:                                               ; preds = %5
  %22 = call zeroext i1 (ptr, ...) @SDL_SetError_REAL(ptr noundef @.str.4)
  store i1 %22, ptr %6, align 1
  store i32 1, ptr %13, align 4
  br label %37

23:                                               ; preds = %5
  %24 = load ptr, ptr %12, align 8
  %25 = getelementptr inbounds nuw %struct.SDL_DriverPS4_Context, ptr %24, i32 0, i32 24
  store i8 1, ptr %25, align 2
  %26 = load i8, ptr %9, align 1
  %27 = load ptr, ptr %12, align 8
  %28 = getelementptr inbounds nuw %struct.SDL_DriverPS4_Context, ptr %27, i32 0, i32 25
  store i8 %26, ptr %28, align 1
  %29 = load i8, ptr %10, align 1
  %30 = load ptr, ptr %12, align 8
  %31 = getelementptr inbounds nuw %struct.SDL_DriverPS4_Context, ptr %30, i32 0, i32 26
  store i8 %29, ptr %31, align 8
  %32 = load i8, ptr %11, align 1
  %33 = load ptr, ptr %12, align 8
  %34 = getelementptr inbounds nuw %struct.SDL_DriverPS4_Context, ptr %33, i32 0, i32 27
  store i8 %32, ptr %34, align 1
  %35 = load ptr, ptr %12, align 8
  %36 = call zeroext i1 @HIDAPI_DriverPS4_UpdateEffects(ptr noundef %35, i1 noundef zeroext true)
  store i1 %36, ptr %6, align 1
  store i32 1, ptr %13, align 4
  br label %37

37:                                               ; preds = %23, %21
  call void @llvm.lifetime.end.p0(i64 8, ptr %12) #6
  %38 = load i1, ptr %6, align 1
  ret i1 %38
}