; Function Attrs: nounwind uwtable
define internal zeroext i1 @HIDAPI_DriverPS4_SetJoystickLED(ptr noundef readonly captures(none) %0, ptr readnone captures(none) %1, i8 noundef zeroext %2, i8 noundef zeroext %3, i8 noundef zeroext %4) #0 {
  %6 = alloca %struct.DS4EffectsState_t, align 1
  %7 = getelementptr inbounds nuw i8, ptr %0, i64 112
  %8 = load ptr, ptr %7, align 8
  %9 = getelementptr inbounds nuw i8, ptr %8, i64 20
  %10 = load i8, ptr %9, align 4, !range !5, !noundef !6
  %11 = trunc nuw i8 %10 to i1
  br i1 %11, label %14, label %12

12:                                               ; preds = %5
  %13 = tail call zeroext i1 (ptr, ...) @SDL_SetError_REAL(ptr noundef nonnull @.str.4) #9
  br label %32

14:                                               ; preds = %5
  %15 = getelementptr inbounds nuw i8, ptr %8, i64 102
  store i8 1, ptr %15, align 2
  %16 = getelementptr inbounds nuw i8, ptr %8, i64 103
  store i8 %2, ptr %16, align 1
  %17 = getelementptr inbounds nuw i8, ptr %8, i64 104
  store i8 %3, ptr %17, align 8
  %18 = getelementptr inbounds nuw i8, ptr %8, i64 105
  store i8 %4, ptr %18, align 1
  call void @llvm.lifetime.start.p0(i64 19, ptr nonnull %6) #9
  call void @llvm.memset.p0.i64(ptr noundef nonnull align 1 dereferenceable(19) %6, i8 0, i64 19, i1 false)
  %19 = getelementptr inbounds nuw i8, ptr %8, i64 21
  %20 = load i8, ptr %19, align 1, !range !5, !noundef !6
  %21 = trunc nuw i8 %20 to i1
  br i1 %21, label %22, label %HIDAPI_DriverPS4_UpdateEffects.exit

22:                                               ; preds = %14
  %23 = getelementptr inbounds nuw i8, ptr %8, i64 100
  %24 = load i8, ptr %23, align 4
  %25 = getelementptr inbounds nuw i8, ptr %6, i64 1
  store i8 %24, ptr %25, align 1
  %26 = getelementptr inbounds nuw i8, ptr %8, i64 101
  %27 = load i8, ptr %26, align 1
  store i8 %27, ptr %6, align 1
  br label %HIDAPI_DriverPS4_UpdateEffects.exit

HIDAPI_DriverPS4_UpdateEffects.exit:              ; preds = %14, %22
  %28 = getelementptr inbounds nuw i8, ptr %6, i64 2
  store i8 %2, ptr %28, align 1
  %29 = getelementptr inbounds nuw i8, ptr %6, i64 3
  store i8 %3, ptr %29, align 1
  %30 = getelementptr inbounds nuw i8, ptr %6, i64 4
  store i8 %4, ptr %30, align 1
  %31 = call fastcc zeroext i1 @HIDAPI_DriverPS4_InternalSendJoystickEffect(ptr noundef nonnull %8, ptr noundef nonnull %6, i32 noundef 19, i1 noundef zeroext true)
  call void @llvm.lifetime.end.p0(i64 19, ptr nonnull %6) #9
  br label %32

32:                                               ; preds = %HIDAPI_DriverPS4_UpdateEffects.exit, %12
  %.0 = phi i1 [ %31, %HIDAPI_DriverPS4_UpdateEffects.exit ], [ %13, %12 ]
  ret i1 %.0
}